; Function Attrs: mustprogress uwtable
define noundef i32 @_ZN32pxrInternal_v0_24__pxrReserved__32Ts_GetEffectiveExtrapolationTypeERKNS_10TsKeyFrameERKNS_8TsSplineENS_6TsSideE(ptr noundef nonnull align 8 dereferenceable(72) %0, ptr noundef nonnull align 8 dereferenceable(16) %1, i32 noundef %2) local_unnamed_addr #3 {
  %4 = tail call i64 @_ZNK32pxrInternal_v0_24__pxrReserved__8TsSpline16GetExtrapolationEv(ptr noundef nonnull align 8 dereferenceable(16) %1)
  %.sroa.2.0.extract.shift = lshr i64 %4, 32
  %5 = tail call noundef nonnull align 8 dereferenceable(24) ptr @_ZNK32pxrInternal_v0_24__pxrReserved__8TsSpline12GetKeyFramesEv(ptr noundef nonnull align 8 dereferenceable(16) %1)
  %6 = getelementptr inbounds nuw i8, ptr %5, i64 8
  %7 = load ptr, ptr %6, align 8
  %8 = load ptr, ptr %5, align 8
  %9 = ptrtoint ptr %7 to i64
  %10 = ptrtoint ptr %8 to i64
  %11 = sub i64 %9, %10
  %12 = icmp ne i64 %11, 72
  %13 = tail call noundef i32 @_ZNK32pxrInternal_v0_24__pxrReserved__10TsKeyFrame11GetKnotTypeEv(ptr noundef nonnull align 8 dereferenceable(72) %0)
  %14 = icmp eq i32 %13, 0
  br i1 %14, label %_ZN32pxrInternal_v0_24__pxrReserved__32Ts_GetEffectiveExtrapolationTypeERKNS_10TsKeyFrameERKSt4pairINS_19TsExtrapolationTypeES4_EbNS_6TsSideE.exit, label %15

15:                                               ; preds = %3
  %16 = tail call noundef zeroext i1 @_ZNK32pxrInternal_v0_24__pxrReserved__10TsKeyFrame11HasTangentsEv(ptr noundef nonnull align 8 dereferenceable(72) %0)
  br i1 %16, label %19, label %17

17:                                               ; preds = %15
  %18 = tail call noundef zeroext i1 @_ZNK32pxrInternal_v0_24__pxrReserved__10TsKeyFrame15GetIsDualValuedEv(ptr noundef nonnull align 8 dereferenceable(72) %0)
  br i1 %18, label %_ZN32pxrInternal_v0_24__pxrReserved__32Ts_GetEffectiveExtrapolationTypeERKNS_10TsKeyFrameERKSt4pairINS_19TsExtrapolationTypeES4_EbNS_6TsSideE.exit, label %19

19:                                               ; preds = %17, %15
  %20 = tail call noundef zeroext i1 @_ZNK32pxrInternal_v0_24__pxrReserved__10TsKeyFrame11HasTangentsEv(ptr noundef nonnull align 8 dereferenceable(72) %0)
  %brmerge.i = or i1 %12, %20
  br i1 %brmerge.i, label %21, label %_ZN32pxrInternal_v0_24__pxrReserved__32Ts_GetEffectiveExtrapolationTypeERKNS_10TsKeyFrameERKSt4pairINS_19TsExtrapolationTypeES4_EbNS_6TsSideE.exit

21:                                               ; preds = %19
  %22 = icmp eq i32 %2, 0
  %.sroa.speculated.v = select i1 %22, i64 %4, i64 %.sroa.2.0.extract.shift
  %.sroa.speculated = trunc i64 %.sroa.speculated.v to i32
  br label %_ZN32pxrInternal_v0_24__pxrReserved__32Ts_GetEffectiveExtrapolationTypeERKNS_10TsKeyFrameERKSt4pairINS_19TsExtrapolationTypeES4_EbNS_6TsSideE.exit

_ZN32pxrInternal_v0_24__pxrReserved__32Ts_GetEffectiveExtrapolationTypeERKNS_10TsKeyFrameERKSt4pairINS_19TsExtrapolationTypeES4_EbNS_6TsSideE.exit: ; preds = %3, %17, %19, %21
  %.0.i = phi i32 [ %.sroa.speculated, %21 ], [ 0, %3 ], [ 0, %17 ], [ 0, %19 ]
  ret i32 %.0.i
}